target datalayout = "e-m:e-p270:32:32-p271:32:32-p272:64:64-i64:64-i128:128-f80:128-n8:16:32:64-S128"
target triple = "x86_64-pc-linux-gnu"

%struct._sapi_module_struct = type { ptr, ptr, ptr, ptr, ptr, ptr, ptr, ptr, ptr, ptr, ptr, ptr, ptr, ptr, ptr, ptr, ptr, ptr, ptr, ptr, ptr, ptr, ptr, ptr, i32, i32, ptr, ptr, ptr, ptr, ptr, ptr, i32, ptr, ptr, ptr }
%struct._zend_refcounted_h = type { i32, %union.anon }
%union.anon = type { i32 }
%struct._zend_module_entry = type { i16, i32, i8, i8, ptr, ptr, ptr, ptr, ptr, ptr, ptr, ptr, ptr, ptr, i64, ptr, ptr, ptr, ptr, i32, i8, ptr, i32, ptr }
%struct._zend_string = type { %struct._zend_refcounted_h, i64, i64, [1 x i8] }

@sapi_module = external global %struct._sapi_module_struct, align 8
@.str = private unnamed_addr constant [55 x i8] c"<h2><a name=\22module_%s\22 href=\22#module_%s\22>%s</a></h2>\0A\00", align 1
@.str.1 = private unnamed_addr constant [8 x i8] c"Version\00", align 1
@.str.2 = private unnamed_addr constant [32 x i8] c"<tr><td class=\22v\22>%s</td></tr>\0A\00", align 1
@.str.3 = private unnamed_addr constant [4 x i8] c"%s\0A\00", align 1
@.str.65 = private unnamed_addr constant [2 x i8] c"\0A\00", align 1
@.str.112 = private unnamed_addr constant [9 x i8] c"<table>\0A\00", align 1
@.str.113 = private unnamed_addr constant [10 x i8] c"</table>\0A\00", align 1

; Function Attrs: nounwind uwtable
define void @php_info_print_table_end() #0 {
  %1 = alloca ptr, align 8
  %2 = load i32, ptr getelementptr inbounds (%struct._sapi_module_struct, ptr @sapi_module, i32 0, i32 32), align 8
  %3 = icmp ne i32 %2, 0
  br i1 %3, label %9, label %4

4:                                                ; preds = %0
  store ptr @.str.113, ptr %1, align 8
  %5 = load ptr, ptr %1, align 8
  %6 = load ptr, ptr %1, align 8
  %7 = call i64 @strlen(ptr noundef %6) #9
  %8 = call i64 @php_output_write(ptr noundef %5, i64 noundef %7) #10
  br label %9

9:                                                ; preds = %4, %0
  ret void
}

; Function Attrs: nounwind uwtable
define void @php_info_print_table_start() #0 {
  %1 = alloca ptr, align 8
  %2 = alloca ptr, align 8
  %3 = load i32, ptr getelementptr inbounds (%struct._sapi_module_struct, ptr @sapi_module, i32 0, i32 32), align 8
  %4 = icmp ne i32 %3, 0
  br i1 %4, label %10, label %5

5:                                                ; preds = %0
  store ptr @.str.112, ptr %1, align 8
  %6 = load ptr, ptr %1, align 8
  %7 = load ptr, ptr %1, align 8
  %8 = call i64 @strlen(ptr noundef %7) #9
  %9 = call i64 @php_output_write(ptr noundef %6, i64 noundef %8) #10
  br label %15

10:                                               ; preds = %0
  store ptr @.str.65, ptr %2, align 8
  %11 = load ptr, ptr %2, align 8
  %12 = load ptr, ptr %2, align 8
  %13 = call i64 @strlen(ptr noundef %12) #9
  %14 = call i64 @php_output_write(ptr noundef %11, i64 noundef %13) #10
  br label %15

15:                                               ; preds = %10, %5
  ret void
}

; Function Attrs: nounwind uwtable
define void @php_info_print_module(ptr noundef %0) #0 {
  %2 = alloca ptr, align 8
  %3 = alloca ptr, align 8
  store ptr %0, ptr %2, align 8
  %4 = load ptr, ptr %2, align 8
  %5 = getelementptr inbounds %struct._zend_module_entry, ptr %4, i32 0, i32 12
  %6 = load ptr, ptr %5, align 8
  %7 = icmp ne ptr %6, null
  br i1 %7, label %13, label %8

8:                                                ; preds = %1
  %9 = load ptr, ptr %2, align 8
  %10 = getelementptr inbounds %struct._zend_module_entry, ptr %9, i32 0, i32 13
  %11 = load ptr, ptr %10, align 8
  %12 = icmp ne ptr %11, null
  br i1 %12, label %13, label %62

13:                                               ; preds = %8, %1
  %14 = load i32, ptr getelementptr inbounds (%struct._sapi_module_struct, ptr @sapi_module, i32 0, i32 32), align 8
  %15 = icmp ne i32 %14, 0
  br i1 %15, label %42, label %16

16:                                               ; preds = %13
  %17 = load ptr, ptr %2, align 8
  %18 = getelementptr inbounds %struct._zend_module_entry, ptr %17, i32 0, i32 6
  %19 = load ptr, ptr %18, align 8
  %20 = load ptr, ptr %2, align 8
  %21 = getelementptr inbounds %struct._zend_module_entry, ptr %20, i32 0, i32 6
  %22 = load ptr, ptr %21, align 8
  %23 = call i64 @strlen(ptr noundef %22) #9
  %24 = call ptr @php_url_encode(ptr noundef %19, i64 noundef %23)
  store ptr %24, ptr %3, align 8
  %25 = load ptr, ptr %3, align 8
  %26 = getelementptr inbounds %struct._zend_string, ptr %25, i32 0, i32 3
  %27 = getelementptr inbounds [1 x i8], ptr %26, i64 0, i64 0
  %28 = load ptr, ptr %3, align 8
  %29 = getelementptr inbounds %struct._zend_string, ptr %28, i32 0, i32 2
  %30 = load i64, ptr %29, align 8
  call void @zend_str_tolower(ptr noundef %27, i64 noundef %30)
  %31 = load ptr, ptr %3, align 8
  %32 = getelementptr inbounds %struct._zend_string, ptr %31, i32 0, i32 3
  %33 = getelementptr inbounds [1 x i8], ptr %32, i64 0, i64 0
  %34 = load ptr, ptr %3, align 8
  %35 = getelementptr inbounds %struct._zend_string, ptr %34, i32 0, i32 3
  %36 = getelementptr inbounds [1 x i8], ptr %35, i64 0, i64 0
  %37 = load ptr, ptr %2, align 8
  %38 = getelementptr inbounds %struct._zend_module_entry, ptr %37, i32 0, i32 6
  %39 = load ptr, ptr %38, align 8
  %40 = call i32 (ptr, ...) @php_info_printf(ptr noundef @.str, ptr noundef %33, ptr noundef %36, ptr noundef %39)
  %41 = load ptr, ptr %3, align 8
  call void @_efree(ptr noundef %41)
  br label %46

42:                                               ; preds = %13
  call void @php_info_print_table_start()
  %43 = load ptr, ptr %2, align 8
  %44 = getelementptr inbounds %struct._zend_module_entry, ptr %43, i32 0, i32 6
  %45 = load ptr, ptr %44, align 8
  call void (i32, ...) @php_info_print_table_header(i32 noundef 1, ptr noundef %45)
  call void @php_info_print_table_end()
  br label %46

46:                                               ; preds = %42, %16
  %47 = load ptr, ptr %2, align 8
  %48 = getelementptr inbounds %struct._zend_module_entry, ptr %47, i32 0, i32 12
  %49 = load ptr, ptr %48, align 8
  %50 = icmp ne ptr %49, null
  br i1 %50, label %51, label %56

51:                                               ; preds = %46
  %52 = load ptr, ptr %2, align 8
  %53 = getelementptr inbounds %struct._zend_module_entry, ptr %52, i32 0, i32 12
  %54 = load ptr, ptr %53, align 8
  %55 = load ptr, ptr %2, align 8
  call void %54(ptr noundef %55)
  br label %61

56:                                               ; preds = %46
  call void @php_info_print_table_start()
  %57 = load ptr, ptr %2, align 8
  %58 = getelementptr inbounds %struct._zend_module_entry, ptr %57, i32 0, i32 13
  %59 = load ptr, ptr %58, align 8
  call void (i32, ...) @php_info_print_table_row(i32 noundef 2, ptr noundef @.str.1, ptr noundef %59)
  call void @php_info_print_table_end()
  %60 = load ptr, ptr %2, align 8
  call void @display_ini_entries(ptr noundef %60)
  br label %61

61:                                               ; preds = %56, %51
  br label %76

62:                                               ; preds = %8
  %63 = load i32, ptr getelementptr inbounds (%struct._sapi_module_struct, ptr @sapi_module, i32 0, i32 32), align 8
  %64 = icmp ne i32 %63, 0
  br i1 %64, label %70, label %65

65:                                               ; preds = %62
  %66 = load ptr, ptr %2, align 8
  %67 = getelementptr inbounds %struct._zend_module_entry, ptr %66, i32 0, i32 6
  %68 = load ptr, ptr %67, align 8
  %69 = call i32 (ptr, ...) @php_info_printf(ptr noundef @.str.2, ptr noundef %68)
  br label %75

70:                                               ; preds = %62
  %71 = load ptr, ptr %2, align 8
  %72 = getelementptr inbounds %struct._zend_module_entry, ptr %71, i32 0, i32 6
  %73 = load ptr, ptr %72, align 8
  %74 = call i32 (ptr, ...) @php_info_printf(ptr noundef @.str.3, ptr noundef %73)
  br label %75

75:                                               ; preds = %70, %65
  br label %76

76:                                               ; preds = %75, %61
  ret void
}