; Function Attrs: nounwind uwtable
define void @php_info_print_module(ptr noundef %0) local_unnamed_addr #0 {
  %2 = getelementptr inbounds i8, ptr %0, i64 80
  %3 = load ptr, ptr %2, align 8
  %.not = icmp eq ptr %3, null
  br i1 %.not, label %4, label %7

4:                                                ; preds = %1
  %5 = getelementptr inbounds i8, ptr %0, i64 88
  %6 = load ptr, ptr %5, align 8
  %.not18 = icmp eq ptr %6, null
  br i1 %.not18, label %37, label %7

7:                                                ; preds = %4, %1
  %8 = load i32, ptr getelementptr inbounds (%struct._sapi_module_struct, ptr @sapi_module, i64 0, i32 32), align 8
  %.not20 = icmp eq i32 %8, 0
  br i1 %.not20, label %9, label %php_info_print_table_start.exit

9:                                                ; preds = %7
  %10 = getelementptr inbounds i8, ptr %0, i64 32
  %11 = load ptr, ptr %10, align 8
  %12 = tail call i64 @strlen(ptr noundef nonnull dereferenceable(1) %11) #13
  %13 = tail call ptr @php_url_encode(ptr noundef %11, i64 noundef %12) #14
  %14 = getelementptr inbounds i8, ptr %13, i64 24
  %15 = getelementptr inbounds i8, ptr %13, i64 16
  %16 = load i64, ptr %15, align 8
  tail call void @zend_str_tolower(ptr noundef nonnull %14, i64 noundef %16) #14
  %17 = load ptr, ptr %10, align 8
  tail call void (ptr, ...) @php_info_printf(ptr noundef nonnull @.str, ptr noundef nonnull %14, ptr noundef nonnull %14, ptr noundef %17)
  tail call void @_efree(ptr noundef %13) #14
  br label %php_info_print_table_end.exit

php_info_print_table_start.exit:                  ; preds = %7
  %18 = tail call i64 @php_output_write(ptr noundef nonnull @.str.65, i64 noundef 1) #14
  %19 = getelementptr inbounds i8, ptr %0, i64 32
  %20 = load ptr, ptr %19, align 8
  tail call void (i32, ...) @php_info_print_table_header(i32 noundef 1, ptr noundef %20)
  %21 = load i32, ptr getelementptr inbounds (%struct._sapi_module_struct, ptr @sapi_module, i64 0, i32 32), align 8
  %.not.i22 = icmp eq i32 %21, 0
  br i1 %.not.i22, label %22, label %php_info_print_table_end.exit

22:                                               ; preds = %php_info_print_table_start.exit
  %23 = tail call i64 @php_output_write(ptr noundef nonnull @.str.113, i64 noundef 9) #14
  br label %php_info_print_table_end.exit

php_info_print_table_end.exit:                    ; preds = %22, %php_info_print_table_start.exit, %9
  %24 = load ptr, ptr %2, align 8
  %.not21 = icmp eq ptr %24, null
  br i1 %.not21, label %26, label %25

25:                                               ; preds = %php_info_print_table_end.exit
  tail call void %24(ptr noundef nonnull %0) #14
  br label %43

26:                                               ; preds = %php_info_print_table_end.exit
  %27 = load i32, ptr getelementptr inbounds (%struct._sapi_module_struct, ptr @sapi_module, i64 0, i32 32), align 8
  %.not.i23 = icmp eq i32 %27, 0
  br i1 %.not.i23, label %28, label %30

28:                                               ; preds = %26
  %29 = tail call i64 @php_output_write(ptr noundef nonnull @.str.112, i64 noundef 8) #14
  br label %php_info_print_table_start.exit24

30:                                               ; preds = %26
  %31 = tail call i64 @php_output_write(ptr noundef nonnull @.str.65, i64 noundef 1) #14
  br label %php_info_print_table_start.exit24

php_info_print_table_start.exit24:                ; preds = %28, %30
  %32 = getelementptr inbounds i8, ptr %0, i64 88
  %33 = load ptr, ptr %32, align 8
  tail call void (i32, ...) @php_info_print_table_row(i32 noundef 2, ptr noundef nonnull @.str.1, ptr noundef %33)
  %34 = load i32, ptr getelementptr inbounds (%struct._sapi_module_struct, ptr @sapi_module, i64 0, i32 32), align 8
  %.not.i25 = icmp eq i32 %34, 0
  br i1 %.not.i25, label %35, label %php_info_print_table_end.exit26

35:                                               ; preds = %php_info_print_table_start.exit24
  %36 = tail call i64 @php_output_write(ptr noundef nonnull @.str.113, i64 noundef 9) #14
  br label %php_info_print_table_end.exit26

php_info_print_table_end.exit26:                  ; preds = %php_info_print_table_start.exit24, %35
  tail call void @display_ini_entries(ptr noundef nonnull %0) #14
  br label %43

37:                                               ; preds = %4
  %38 = load i32, ptr getelementptr inbounds (%struct._sapi_module_struct, ptr @sapi_module, i64 0, i32 32), align 8
  %.not19 = icmp eq i32 %38, 0
  %39 = getelementptr inbounds i8, ptr %0, i64 32
  %40 = load ptr, ptr %39, align 8
  br i1 %.not19, label %41, label %42

41:                                               ; preds = %37
  tail call void (ptr, ...) @php_info_printf(ptr noundef nonnull @.str.2, ptr noundef %40)
  br label %43

42:                                               ; preds = %37
  tail call void (ptr, ...) @php_info_printf(ptr noundef nonnull @.str.3, ptr noundef %40)
  br label %43

43:                                               ; preds = %41, %42, %25, %php_info_print_table_end.exit26
  ret void
}